target datalayout = "e-m:e-p270:32:32-p271:32:32-p272:64:64-i64:64-i128:128-f80:128-n8:16:32:64-S128"
target triple = "x86_64-pc-linux-gnu"

%"class.std::__cxx11::basic_string" = type { %"struct.std::__cxx11::basic_string<char>::_Alloc_hider", i64, %union.anon }
%"struct.std::__cxx11::basic_string<char>::_Alloc_hider" = type { ptr }
%union.anon = type { i64, [8 x i8] }
%"struct.pxrInternal_v0_24__pxrReserved__::HgiTextureViewDesc" = type <{ %"class.std::__cxx11::basic_string", i32, i16, i16, %"class.pxrInternal_v0_24__pxrReserved__::HgiHandle", i16, i16, [4 x i8] }>
%"class.pxrInternal_v0_24__pxrReserved__::HgiHandle" = type { ptr, i64 }

; Function Attrs: noreturn nounwind uwtable
define linkonce_odr hidden void @__clang_call_terminate(ptr noundef %0) #7 comdat {
  %2 = call ptr @__cxa_begin_catch(ptr %0) #8
  call void @_ZSt9terminatev() #9
  unreachable
}

; Function Attrs: mustprogress nounwind uwtable
define linkonce_odr noundef i32 @_ZNSt11char_traitsIcE7compareEPKcS2_m(ptr noundef %0, ptr noundef %1, i64 noundef %2) #1 comdat align 2 {
  %4 = alloca i32, align 4
  %5 = alloca ptr, align 8
  %6 = alloca ptr, align 8
  %7 = alloca i64, align 8
  store ptr %0, ptr %5, align 8
  store ptr %1, ptr %6, align 8
  store i64 %2, ptr %7, align 8
  %8 = load i64, ptr %7, align 8
  %9 = icmp eq i64 %8, 0
  br i1 %9, label %10, label %11

10:                                               ; preds = %3
  store i32 0, ptr %4, align 4
  br label %16

11:                                               ; preds = %3
  %12 = load ptr, ptr %5, align 8
  %13 = load ptr, ptr %6, align 8
  %14 = load i64, ptr %7, align 8
  %15 = call i32 @memcmp(ptr noundef %12, ptr noundef %13, i64 noundef %14) #8
  store i32 %15, ptr %4, align 4
  br label %16

16:                                               ; preds = %11, %10
  %17 = load i32, ptr %4, align 4
  ret i32 %17
}

; Function Attrs: mustprogress nounwind uwtable
define linkonce_odr noundef zeroext i1 @_ZNK32pxrInternal_v0_24__pxrReserved__9HgiHandleINS_10HgiTextureEEeqERKS2_(ptr noundef nonnull align 8 dereferenceable(16) %0, ptr noundef nonnull align 8 dereferenceable(16) %1) #1 comdat align 2 {
  %3 = alloca ptr, align 8
  %4 = alloca ptr, align 8
  store ptr %0, ptr %3, align 8
  store ptr %1, ptr %4, align 8
  %5 = load ptr, ptr %3, align 8
  %6 = getelementptr inbounds nuw %"class.pxrInternal_v0_24__pxrReserved__::HgiHandle", ptr %5, i32 0, i32 1
  %7 = load i64, ptr %6, align 8
  %8 = load ptr, ptr %4, align 8
  %9 = getelementptr inbounds nuw %"class.pxrInternal_v0_24__pxrReserved__::HgiHandle", ptr %8, i32 0, i32 1
  %10 = load i64, ptr %9, align 8
  %11 = icmp eq i64 %7, %10
  ret i1 %11
}

; Function Attrs: mustprogress nounwind uwtable
define linkonce_odr noundef zeroext i1 @_ZSteqIcEN9__gnu_cxx11__enable_ifIXsr9__is_charIT_EE7__valueEbE6__typeERKNSt7__cxx1112basic_stringIS2_St11char_traitsIS2_ESaIS2_EEESC_(ptr noundef nonnull align 8 dereferenceable(32) %0, ptr noundef nonnull align 8 dereferenceable(32) %1) #1 comdat personality ptr @__gxx_personality_v0 {
  %3 = alloca ptr, align 8
  %4 = alloca ptr, align 8
  store ptr %0, ptr %3, align 8
  store ptr %1, ptr %4, align 8
  %5 = load ptr, ptr %3, align 8
  %6 = call noundef i64 @_ZNKSt7__cxx1112basic_stringIcSt11char_traitsIcESaIcEE4sizeEv(ptr noundef nonnull align 8 dereferenceable(32) %5) #8
  %7 = load ptr, ptr %4, align 8
  %8 = call noundef i64 @_ZNKSt7__cxx1112basic_stringIcSt11char_traitsIcESaIcEE4sizeEv(ptr noundef nonnull align 8 dereferenceable(32) %7) #8
  %9 = icmp eq i64 %6, %8
  br i1 %9, label %10, label %21

10:                                               ; preds = %2
  %11 = load ptr, ptr %3, align 8
  %12 = call noundef ptr @_ZNKSt7__cxx1112basic_stringIcSt11char_traitsIcESaIcEE4dataEv(ptr noundef nonnull align 8 dereferenceable(32) %11) #8
  %13 = load ptr, ptr %4, align 8
  %14 = call noundef ptr @_ZNKSt7__cxx1112basic_stringIcSt11char_traitsIcESaIcEE4dataEv(ptr noundef nonnull align 8 dereferenceable(32) %13) #8
  %15 = load ptr, ptr %3, align 8
  %16 = call noundef i64 @_ZNKSt7__cxx1112basic_stringIcSt11char_traitsIcESaIcEE4sizeEv(ptr noundef nonnull align 8 dereferenceable(32) %15) #8
  %17 = invoke noundef i32 @_ZNSt11char_traitsIcE7compareEPKcS2_m(ptr noundef %12, ptr noundef %14, i64 noundef %16)
          to label %18 unwind label %23

18:                                               ; preds = %10
  %19 = icmp ne i32 %17, 0
  %20 = xor i1 %19, true
  br label %21

21:                                               ; preds = %18, %2
  %22 = phi i1 [ false, %2 ], [ %20, %18 ]
  ret i1 %22

23:                                               ; preds = %10
  %24 = landingpad { ptr, i32 }
          catch ptr null
  %25 = extractvalue { ptr, i32 } %24, 0
  call void @__clang_call_terminate(ptr %25) #9
  unreachable
}

; Function Attrs: mustprogress uwtable
define noundef zeroext i1 @_ZN32pxrInternal_v0_24__pxrReserved__eqERKNS_18HgiTextureViewDescES2_(ptr noundef nonnull align 8 dereferenceable(60) %0, ptr noundef nonnull align 8 dereferenceable(60) %1) #0 {
  %3 = alloca ptr, align 8
  %4 = alloca ptr, align 8
  store ptr %0, ptr %3, align 8
  store ptr %1, ptr %4, align 8
  %5 = load ptr, ptr %3, align 8
  %6 = getelementptr inbounds nuw %"struct.pxrInternal_v0_24__pxrReserved__::HgiTextureViewDesc", ptr %5, i32 0, i32 0
  %7 = load ptr, ptr %4, align 8
  %8 = getelementptr inbounds nuw %"struct.pxrInternal_v0_24__pxrReserved__::HgiTextureViewDesc", ptr %7, i32 0, i32 0
  %9 = call noundef zeroext i1 @_ZSteqIcEN9__gnu_cxx11__enable_ifIXsr9__is_charIT_EE7__valueEbE6__typeERKNSt7__cxx1112basic_stringIS2_St11char_traitsIS2_ESaIS2_EEESC_(ptr noundef nonnull align 8 dereferenceable(32) %6, ptr noundef nonnull align 8 dereferenceable(32) %8) #8
  br i1 %9, label %10, label %64

10:                                               ; preds = %2
  %11 = load ptr, ptr %3, align 8
  %12 = getelementptr inbounds nuw %"struct.pxrInternal_v0_24__pxrReserved__::HgiTextureViewDesc", ptr %11, i32 0, i32 1
  %13 = load i32, ptr %12, align 8
  %14 = load ptr, ptr %4, align 8
  %15 = getelementptr inbounds nuw %"struct.pxrInternal_v0_24__pxrReserved__::HgiTextureViewDesc", ptr %14, i32 0, i32 1
  %16 = load i32, ptr %15, align 8
  %17 = icmp eq i32 %13, %16
  br i1 %17, label %18, label %64

18:                                               ; preds = %10
  %19 = load ptr, ptr %3, align 8
  %20 = getelementptr inbounds nuw %"struct.pxrInternal_v0_24__pxrReserved__::HgiTextureViewDesc", ptr %19, i32 0, i32 2
  %21 = load i16, ptr %20, align 4
  %22 = zext i16 %21 to i32
  %23 = load ptr, ptr %4, align 8
  %24 = getelementptr inbounds nuw %"struct.pxrInternal_v0_24__pxrReserved__::HgiTextureViewDesc", ptr %23, i32 0, i32 2
  %25 = load i16, ptr %24, align 4
  %26 = zext i16 %25 to i32
  %27 = icmp eq i32 %22, %26
  br i1 %27, label %28, label %64

28:                                               ; preds = %18
  %29 = load ptr, ptr %3, align 8
  %30 = getelementptr inbounds nuw %"struct.pxrInternal_v0_24__pxrReserved__::HgiTextureViewDesc", ptr %29, i32 0, i32 3
  %31 = load i16, ptr %30, align 2
  %32 = zext i16 %31 to i32
  %33 = load ptr, ptr %4, align 8
  %34 = getelementptr inbounds nuw %"struct.pxrInternal_v0_24__pxrReserved__::HgiTextureViewDesc", ptr %33, i32 0, i32 3
  %35 = load i16, ptr %34, align 2
  %36 = zext i16 %35 to i32
  %37 = icmp eq i32 %32, %36
  br i1 %37, label %38, label %64

38:                                               ; preds = %28
  %39 = load ptr, ptr %3, align 8
  %40 = getelementptr inbounds nuw %"struct.pxrInternal_v0_24__pxrReserved__::HgiTextureViewDesc", ptr %39, i32 0, i32 4
  %41 = load ptr, ptr %4, align 8
  %42 = getelementptr inbounds nuw %"struct.pxrInternal_v0_24__pxrReserved__::HgiTextureViewDesc", ptr %41, i32 0, i32 4
  %43 = call noundef zeroext i1 @_ZNK32pxrInternal_v0_24__pxrReserved__9HgiHandleINS_10HgiTextureEEeqERKS2_(ptr noundef nonnull align 8 dereferenceable(16) %40, ptr noundef nonnull align 8 dereferenceable(16) %42)
  br i1 %43, label %44, label %64

44:                                               ; preds = %38
  %45 = load ptr, ptr %3, align 8
  %46 = getelementptr inbounds nuw %"struct.pxrInternal_v0_24__pxrReserved__::HgiTextureViewDesc", ptr %45, i32 0, i32 5
  %47 = load i16, ptr %46, align 8
  %48 = zext i16 %47 to i32
  %49 = load ptr, ptr %4, align 8
  %50 = getelementptr inbounds nuw %"struct.pxrInternal_v0_24__pxrReserved__::HgiTextureViewDesc", ptr %49, i32 0, i32 5
  %51 = load i16, ptr %50, align 8
  %52 = zext i16 %51 to i32
  %53 = icmp eq i32 %48, %52
  br i1 %53, label %54, label %64

54:                                               ; preds = %44
  %55 = load ptr, ptr %3, align 8
  %56 = getelementptr inbounds nuw %"struct.pxrInternal_v0_24__pxrReserved__::HgiTextureViewDesc", ptr %55, i32 0, i32 6
  %57 = load i16, ptr %56, align 2
  %58 = zext i16 %57 to i32
  %59 = load ptr, ptr %4, align 8
  %60 = getelementptr inbounds nuw %"struct.pxrInternal_v0_24__pxrReserved__::HgiTextureViewDesc", ptr %59, i32 0, i32 6
  %61 = load i16, ptr %60, align 2
  %62 = zext i16 %61 to i32
  %63 = icmp eq i32 %58, %62
  br label %64

64:                                               ; preds = %54, %44, %38, %28, %18, %10, %2
  %65 = phi i1 [ false, %44 ], [ false, %38 ], [ false, %28 ], [ false, %18 ], [ false, %10 ], [ false, %2 ], [ %63, %54 ]
  ret i1 %65
}